Certificate:
    Data:
        Version: 1 (0x0)
        Serial Number: 26 (0x1a)
        Signature Algorithm: sha256WithRSAEncryption
        Issuer: C=CA, ST=Quebec, L=Sherbrooke, O=Universite de Sherbrooke, OU=GEGI, CN=autorite/emailAddress=autorite@gegi
        Validity
            Not Before: Jan 18 15:38:01 2023 GMT
            Not After : Jan 18 15:38:01 2024 GMT
        Subject: C=CA, ST=Quebec, O=Universite de Sherbrooke, OU=GEGI, CN=myapp.com/emailAddress=mail.myapp.com
        Subject Public Key Info:
            Public Key Algorithm: rsaEncryption
                RSA Public-Key: (2048 bit)
                Modulus:
                    00:d2:0d:13:9a:4e:c6:ba:49:81:7d:82:72:6c:83:
                    79:b9:bc:63:8d:18:71:80:e9:2b:c1:bb:f0:79:93:
                    5d:6c:ab:e6:47:a1:3a:6e:94:87:94:67:20:ca:35:
                    90:86:6e:08:fd:47:d7:ea:c5:b2:80:44:a5:63:32:
                    5d:16:7c:4e:12:bc:f4:35:ab:e9:9f:a2:c7:ab:8a:
                    66:e9:90:b5:5b:08:f0:f4:a7:02:72:d7:c0:59:84:
                    6a:6f:07:70:c7:06:d3:3a:37:87:e9:6b:cc:31:5b:
                    e8:be:91:8d:0b:43:17:13:81:44:65:04:54:e3:ac:
                    be:9a:32:b8:8b:7b:45:9e:e2:ef:d9:fb:23:1c:6d:
                    2b:5c:ce:59:12:ce:37:6c:49:25:9d:04:28:6e:d4:
                    1f:62:d1:da:18:95:4c:de:75:07:79:75:de:35:0e:
                    4c:1d:68:6f:e9:d6:ca:99:9e:2d:cf:0e:ba:61:f1:
                    e7:89:7f:67:a5:c8:f7:7f:5d:d4:08:d1:a6:6e:f6:
                    65:c9:03:2e:66:f0:2d:cb:d4:bb:46:82:79:08:bc:
                    3c:d2:16:23:0a:3d:25:5a:8a:9e:44:f9:22:74:b8:
                    b2:14:42:5e:f2:02:c5:af:e6:0c:30:e9:68:c1:bc:
                    91:b4:bf:09:9a:2e:f1:c3:26:7f:df:a6:f7:9c:de:
                    0c:2d
                Exponent: 65537 (0x10001)
    Signature Algorithm: sha256WithRSAEncryption
         7e:08:ae:ea:ee:2f:37:b6:a7:c7:45:bf:5c:a4:f6:22:04:10:
         20:d9:54:5f:ce:05:1c:c7:0b:df:65:5e:72:e9:f6:5f:c5:c5:
         2f:09:8f:a6:d4:6b:40:c0:f1:2e:4d:8c:b7:72:c1:03:40:5c:
         f6:bc:8c:db:81:a5:c5:88:ca:a8:4f:81:17:44:ae:cd:3d:9f:
         e8:71:47:fe:27:c6:9a:64:19:6e:bb:c7:2a:35:bf:09:2a:03:
         bb:67:fd:3b:7b:d3:fb:4d:e7:eb:e1:78:00:27:9f:f1:6d:71:
         43:db:72:3a:3b:a3:56:4d:3a:b7:41:3d:0d:3b:e6:71:99:2d:
         e8:f2:19:84:a7:d2:79:1c:55:c4:59:27:9b:93:52:b4:34:24:
         97:1e:a8:0a:60:ec:df:38:82:ff:96:56:a3:0b:a1:d6:87:d2:
         7a:3f:76:85:bd:8d:a5:7a:7d:d9:77:e4:27:90:65:f4:f3:65:
         22:bb:ad:49:36:7a:71:eb:4f:26:7b:90:32:09:a8:60:08:b3:
         65:69:8b:8f:1a:9e:88:9e:2b:20:24:f3:79:31:08:69:8b:96:
         57:22:a3:65:4f:ba:fc:88:e8:62:02:3d:15:1b:b9:58:f6:8b:
         52:c8:4c:4f:3d:63:cb:69:99:9d:84:32:46:e1:e0:d7:55:5f:
         8e:73:6c:ce
-----BEGIN CERTIFICATE-----
MIIDjzCCAncCARowDQYJKoZIhvcNAQELBQAwgZYxCzAJBgNVBAYTAkNBMQ8wDQYD
VQQIDAZRdWViZWMxEzARBgNVBAcMClNoZXJicm9va2UxITAfBgNVBAoMGFVuaXZl
cnNpdGUgZGUgU2hlcmJyb29rZTENMAsGA1UECwwER0VHSTERMA8GA1UEAwwIYXV0
b3JpdGUxHDAaBgkqhkiG9w0BCQEWDWF1dG9yaXRlQGdlZ2kwHhcNMjMwMTE4MTUz
ODAxWhcNMjQwMTE4MTUzODAxWjCBgzELMAkGA1UEBhMCQ0ExDzANBgNVBAgMBlF1
ZWJlYzEhMB8GA1UECgwYVW5pdmVyc2l0ZSBkZSBTaGVyYnJvb2tlMQ0wCwYDVQQL
DARHRUdJMRIwEAYDVQQDDAlteWFwcC5jb20xHTAbBgkqhkiG9w0BCQEWDm1haWwu
bXlhcHAuY29tMIIBIjANBgkqhkiG9w0BAQEFAAOCAQ8AMIIBCgKCAQEA0g0Tmk7G
ukmBfYJybIN5ubxjjRhxgOkrwbvweZNdbKvmR6E6bpSHlGcgyjWQhm4I/UfX6sWy
gESlYzJdFnxOErz0Navpn6LHq4pm6ZC1Wwjw9KcCctfAWYRqbwdwxwbTOjeH6WvM
MVvovpGNC0MXE4FEZQRU46y+mjK4i3tFnuLv2fsjHG0rXM5ZEs43bEklnQQobtQf
YtHaGJVM3nUHeXXeNQ5MHWhv6dbKmZ4tzw66YfHniX9npcj3f13UCNGmbvZlyQMu
ZvAty9S7RoJ5CLw80hYjCj0lWoqeRPkidLiyFEJe8gLFr+YMMOlowbyRtL8Jmi7x
wyZ/36b3nN4MLQIDAQABMA0GCSqGSIb3DQEBCwUAA4IBAQB+CK7q7i83tqfHRb9c
pPYiBBAg2VRfzgUcxwvfZV5y6fZfxcUvCY+m1GtAwPEuTYy3csEDQFz2vIzbgaXF
iMqoT4EXRK7NPZ/ocUf+J8aaZBluu8cqNb8JKgO7Z/07e9P7Tefr4XgAJ5/xbXFD
23I6O6NWTTq3QT0NO+ZxmS3o8hmEp9J5HFXEWSebk1K0NCSXHqgKYOzfOIL/llaj
C6HWh9J6P3aFvY2len3Zd+QnkGX082Uiu61JNnpx608me5AyCahgCLNlaYuPGp6I
nisgJPN5MQhpi5ZXIqNlT7r8iOhiAj0VG7lY9otSyExPPWPLaZmdhDJG4eDXVV+O
c2zO
-----END CERTIFICATE-----
