Certificate:
    Data:
        Version: 1 (0x0)
        Serial Number: 27 (0x1b)
        Signature Algorithm: sha256WithRSAEncryption
        Issuer: C=CA, ST=Quebec, L=Sherbrooke, O=Universite de Sherbrooke, OU=GEGI, CN=autorite/emailAddress=autorite@gegi
        Validity
            Not Before: Jan 18 19:22:38 2023 GMT
            Not After : Jan 18 19:22:38 2024 GMT
        Subject: C=CA, ST=Quebec, O=Universite de Sherbrooke, OU=GEGI, CN=myapp.com/emailAddress=mail.myapp.com
        Subject Public Key Info:
            Public Key Algorithm: rsaEncryption
                Public-Key: (2048 bit)
                Modulus:
                    00:91:3e:f3:2a:ff:80:bd:97:83:dd:8a:68:84:fe:
                    0b:7a:14:59:18:bf:f6:0b:e7:e9:38:61:7a:0c:1b:
                    1f:bd:70:6b:77:87:e2:81:27:1a:21:6d:d7:8a:8e:
                    15:5d:4f:60:e2:82:3c:31:06:f8:31:5a:29:74:ae:
                    35:87:7e:d5:0f:29:2c:fc:9e:ae:75:9e:01:63:2d:
                    3e:59:43:51:cd:0c:0a:88:b8:f8:ca:7e:2c:b1:2c:
                    38:f2:4a:7e:14:cf:15:85:3a:10:f1:16:5f:2b:20:
                    45:a0:8d:9e:ed:7f:f9:e0:bf:c1:8c:9a:ea:13:b6:
                    a8:5f:21:7c:38:46:07:0c:b0:59:19:0d:d6:e5:39:
                    b9:ef:b7:e3:fe:06:74:bf:27:41:46:b2:1d:97:0c:
                    50:1a:2e:07:7a:5e:20:29:03:1f:8a:2c:3e:c4:b2:
                    10:f0:08:8e:c6:d1:a6:04:45:0c:b8:b5:73:0a:6e:
                    f8:1a:60:aa:ed:9c:8a:01:e1:58:01:7c:2c:ac:c8:
                    92:ca:82:b6:d9:fc:8e:69:d5:30:73:7b:90:a4:ae:
                    f3:cc:8b:60:8a:69:6c:2b:1b:7b:b4:e8:34:53:ee:
                    8f:13:81:cb:b3:b0:c2:9c:89:c2:ba:10:8a:89:8b:
                    52:e7:91:24:6e:e4:c4:05:ff:50:ad:c7:cb:55:dc:
                    11:bb
                Exponent: 65537 (0x10001)
    Signature Algorithm: sha256WithRSAEncryption
    Signature Value:
        98:55:b7:62:16:9e:5b:aa:a1:c7:89:d8:f3:76:4a:3c:0b:77:
        14:e9:2f:d4:b9:e5:f4:61:e7:4c:d5:80:c1:bd:db:86:f4:69:
        4d:e3:84:ba:77:3c:15:56:f0:0b:a0:20:c7:2c:ca:77:a1:3f:
        25:ef:55:28:b6:ca:86:74:c6:b6:77:d5:5b:2d:d9:bc:63:fd:
        7c:8b:22:2b:a5:4c:86:47:10:4a:10:d9:42:36:b4:d4:d4:88:
        fb:27:64:0f:86:0e:08:01:32:e7:09:c9:0f:22:29:e9:32:bb:
        a9:da:aa:e2:df:f9:a7:80:e9:5c:ce:36:4d:66:82:55:b8:50:
        20:43:c0:0e:86:ae:f2:5c:11:3a:ac:18:89:e1:44:e3:ac:c3:
        7c:d7:11:c2:d4:61:ec:d3:f1:f8:9c:ba:1e:bb:72:27:ff:cc:
        b6:9f:44:91:6d:3e:57:92:9f:38:1c:70:78:7b:f0:1f:ad:a9:
        70:f7:07:8c:f8:bd:b3:2e:4c:ab:93:7d:2b:13:80:ff:ee:f6:
        19:0b:5e:20:6d:6e:f7:b9:ff:da:ae:7a:78:cd:f6:08:08:f1:
        3c:8e:e0:c3:e0:87:df:93:1b:90:3f:56:e2:38:98:08:d3:b1:
        6f:c6:19:c9:f1:55:80:b7:d4:19:ed:00:74:18:39:38:b4:82:
        87:ff:30:b2
-----BEGIN CERTIFICATE-----
MIIDjzCCAncCARswDQYJKoZIhvcNAQELBQAwgZYxCzAJBgNVBAYTAkNBMQ8wDQYD
VQQIDAZRdWViZWMxEzARBgNVBAcMClNoZXJicm9va2UxITAfBgNVBAoMGFVuaXZl
cnNpdGUgZGUgU2hlcmJyb29rZTENMAsGA1UECwwER0VHSTERMA8GA1UEAwwIYXV0
b3JpdGUxHDAaBgkqhkiG9w0BCQEWDWF1dG9yaXRlQGdlZ2kwHhcNMjMwMTE4MTky
MjM4WhcNMjQwMTE4MTkyMjM4WjCBgzELMAkGA1UEBhMCQ0ExDzANBgNVBAgMBlF1
ZWJlYzEhMB8GA1UECgwYVW5pdmVyc2l0ZSBkZSBTaGVyYnJvb2tlMQ0wCwYDVQQL
DARHRUdJMRIwEAYDVQQDDAlteWFwcC5jb20xHTAbBgkqhkiG9w0BCQEWDm1haWwu
bXlhcHAuY29tMIIBIjANBgkqhkiG9w0BAQEFAAOCAQ8AMIIBCgKCAQEAkT7zKv+A
vZeD3YpohP4LehRZGL/2C+fpOGF6DBsfvXBrd4figScaIW3Xio4VXU9g4oI8MQb4
MVopdK41h37VDyks/J6udZ4BYy0+WUNRzQwKiLj4yn4ssSw48kp+FM8VhToQ8RZf
KyBFoI2e7X/54L/BjJrqE7aoXyF8OEYHDLBZGQ3W5Tm577fj/gZ0vydBRrIdlwxQ
Gi4Hel4gKQMfiiw+xLIQ8AiOxtGmBEUMuLVzCm74GmCq7ZyKAeFYAXwsrMiSyoK2
2fyOadUwc3uQpK7zzItgimlsKxt7tOg0U+6PE4HLs7DCnInCuhCKiYtS55EkbuTE
Bf9QrcfLVdwRuwIDAQABMA0GCSqGSIb3DQEBCwUAA4IBAQCYVbdiFp5bqqHHidjz
dko8C3cU6S/UueX0YedM1YDBvduG9GlN44S6dzwVVvALoCDHLMp3oT8l71UotsqG
dMa2d9VbLdm8Y/18iyIrpUyGRxBKENlCNrTU1Ij7J2QPhg4IATLnCckPIinpMrup
2qri3/mngOlczjZNZoJVuFAgQ8AOhq7yXBE6rBiJ4UTjrMN81xHC1GHs0/H4nLoe
u3In/8y2n0SRbT5Xkp84HHB4e/Afralw9weM+L2zLkyrk30rE4D/7vYZC14gbW73
uf/arnp4zfYICPE8juDD4IffkxuQP1biOJgI07FvxhnJ8VWAt9QZ7QB0GDk4tIKH
/zCy
-----END CERTIFICATE-----
